; Function Attrs: mustprogress nounwind uwtable
define internal fastcc void @_ZNSt6vectorIN5boost9unit_test12_GLOBAL__N_130unit_test_log_data_helper_implESaIS3_EED2Ev(ptr nocapture noundef nonnull readonly align 8 dereferenceable(24) %0) unnamed_addr #5 align 2 personality ptr @__gxx_personality_v0 {
  %2 = load ptr, ptr %0, align 8, !tbaa !125
  %3 = getelementptr inbounds nuw i8, ptr %0, i64 8
  %4 = load ptr, ptr %3, align 8, !tbaa !115
  %.not4.i.i.i = icmp eq ptr %2, %4
  br i1 %.not4.i.i.i, label %_ZSt8_DestroyIPN5boost9unit_test12_GLOBAL__N_130unit_test_log_data_helper_implES3_EvT_S5_RSaIT0_E.exit, label %.lr.ph.i.i.i

.lr.ph.i.i.i:                                     ; preds = %1, %_ZSt8_DestroyIN5boost9unit_test12_GLOBAL__N_130unit_test_log_data_helper_implEEvPT_.exit.i.i.i
  %.05.i.i.i = phi ptr [ %45, %_ZSt8_DestroyIN5boost9unit_test12_GLOBAL__N_130unit_test_log_data_helper_implEEvPT_.exit.i.i.i ], [ %2, %1 ]
  %5 = getelementptr inbounds nuw i8, ptr %.05.i.i.i, i64 40
  %6 = load ptr, ptr %5, align 8, !tbaa !100
  %.not.i.i.i.i.i.i.i = icmp eq ptr %6, null
  br i1 %.not.i.i.i.i.i.i.i, label %_ZN5boost10shared_ptrINS_9unit_test23unit_test_log_formatterEED2Ev.exit.i.i.i.i.i, label %7

7:                                                ; preds = %.lr.ph.i.i.i
  %8 = getelementptr inbounds nuw i8, ptr %6, i64 8
  %9 = atomicrmw sub ptr %8, i32 1 acq_rel, align 4
  %10 = icmp eq i32 %9, 1
  br i1 %10, label %11, label %_ZN5boost10shared_ptrINS_9unit_test23unit_test_log_formatterEED2Ev.exit.i.i.i.i.i

11:                                               ; preds = %7
  %12 = load ptr, ptr %6, align 8, !tbaa !33
  %13 = getelementptr inbounds i8, ptr %12, i64 16
  %14 = load ptr, ptr %13, align 8
  invoke void %14(ptr noundef nonnull align 8 dereferenceable(16) %6)
          to label %.noexc.i.i.i.i.i.i.i unwind label %22

.noexc.i.i.i.i.i.i.i:                             ; preds = %11
  %15 = getelementptr inbounds nuw i8, ptr %6, i64 12
  %16 = atomicrmw sub ptr %15, i32 1 acq_rel, align 4
  %17 = icmp eq i32 %16, 1
  br i1 %17, label %18, label %_ZN5boost10shared_ptrINS_9unit_test23unit_test_log_formatterEED2Ev.exit.i.i.i.i.i

18:                                               ; preds = %.noexc.i.i.i.i.i.i.i
  %19 = load ptr, ptr %6, align 8, !tbaa !33
  %20 = getelementptr inbounds i8, ptr %19, i64 24
  %21 = load ptr, ptr %20, align 8
  invoke void %21(ptr noundef nonnull align 8 dereferenceable(16) %6)
          to label %_ZN5boost10shared_ptrINS_9unit_test23unit_test_log_formatterEED2Ev.exit.i.i.i.i.i unwind label %22

22:                                               ; preds = %18, %11
  %23 = landingpad { ptr, i32 }
          catch ptr null
  %24 = extractvalue { ptr, i32 } %23, 0
  tail call void @__clang_call_terminate(ptr %24) #28
  unreachable

_ZN5boost10shared_ptrINS_9unit_test23unit_test_log_formatterEED2Ev.exit.i.i.i.i.i: ; preds = %18, %.noexc.i.i.i.i.i.i.i, %7, %.lr.ph.i.i.i
  %25 = getelementptr inbounds nuw i8, ptr %.05.i.i.i, i64 24
  %26 = load ptr, ptr %25, align 8, !tbaa !100
  %.not.i.i1.i.i.i.i.i = icmp eq ptr %26, null
  br i1 %.not.i.i1.i.i.i.i.i, label %_ZSt8_DestroyIN5boost9unit_test12_GLOBAL__N_130unit_test_log_data_helper_implEEvPT_.exit.i.i.i, label %27

27:                                               ; preds = %_ZN5boost10shared_ptrINS_9unit_test23unit_test_log_formatterEED2Ev.exit.i.i.i.i.i
  %28 = getelementptr inbounds nuw i8, ptr %26, i64 8
  %29 = atomicrmw sub ptr %28, i32 1 acq_rel, align 4
  %30 = icmp eq i32 %29, 1
  br i1 %30, label %31, label %_ZSt8_DestroyIN5boost9unit_test12_GLOBAL__N_130unit_test_log_data_helper_implEEvPT_.exit.i.i.i

31:                                               ; preds = %27
  %32 = load ptr, ptr %26, align 8, !tbaa !33
  %33 = getelementptr inbounds i8, ptr %32, i64 16
  %34 = load ptr, ptr %33, align 8
  invoke void %34(ptr noundef nonnull align 8 dereferenceable(16) %26)
          to label %.noexc.i.i2.i.i.i.i.i unwind label %42

.noexc.i.i2.i.i.i.i.i:                            ; preds = %31
  %35 = getelementptr inbounds nuw i8, ptr %26, i64 12
  %36 = atomicrmw sub ptr %35, i32 1 acq_rel, align 4
  %37 = icmp eq i32 %36, 1
  br i1 %37, label %38, label %_ZSt8_DestroyIN5boost9unit_test12_GLOBAL__N_130unit_test_log_data_helper_implEEvPT_.exit.i.i.i

38:                                               ; preds = %.noexc.i.i2.i.i.i.i.i
  %39 = load ptr, ptr %26, align 8, !tbaa !33
  %40 = getelementptr inbounds i8, ptr %39, i64 24
  %41 = load ptr, ptr %40, align 8
  invoke void %41(ptr noundef nonnull align 8 dereferenceable(16) %26)
          to label %_ZSt8_DestroyIN5boost9unit_test12_GLOBAL__N_130unit_test_log_data_helper_implEEvPT_.exit.i.i.i unwind label %42

42:                                               ; preds = %38, %31
  %43 = landingpad { ptr, i32 }
          catch ptr null
  %44 = extractvalue { ptr, i32 } %43, 0
  tail call void @__clang_call_terminate(ptr %44) #28
  unreachable

_ZSt8_DestroyIN5boost9unit_test12_GLOBAL__N_130unit_test_log_data_helper_implEEvPT_.exit.i.i.i: ; preds = %38, %.noexc.i.i2.i.i.i.i.i, %27, %_ZN5boost10shared_ptrINS_9unit_test23unit_test_log_formatterEED2Ev.exit.i.i.i.i.i
  %45 = getelementptr inbounds nuw i8, ptr %.05.i.i.i, i64 56
  %.not.i.i.i = icmp eq ptr %45, %4
  br i1 %.not.i.i.i, label %_ZSt8_DestroyIPN5boost9unit_test12_GLOBAL__N_130unit_test_log_data_helper_implES3_EvT_S5_RSaIT0_E.exitthread-pre-split, label %.lr.ph.i.i.i, !llvm.loop !175

_ZSt8_DestroyIPN5boost9unit_test12_GLOBAL__N_130unit_test_log_data_helper_implES3_EvT_S5_RSaIT0_E.exitthread-pre-split: ; preds = %_ZSt8_DestroyIN5boost9unit_test12_GLOBAL__N_130unit_test_log_data_helper_implEEvPT_.exit.i.i.i
  %.val.pr = load ptr, ptr %0, align 8, !tbaa !125
  br label %_ZSt8_DestroyIPN5boost9unit_test12_GLOBAL__N_130unit_test_log_data_helper_implES3_EvT_S5_RSaIT0_E.exit

_ZSt8_DestroyIPN5boost9unit_test12_GLOBAL__N_130unit_test_log_data_helper_implES3_EvT_S5_RSaIT0_E.exit: ; preds = %_ZSt8_DestroyIPN5boost9unit_test12_GLOBAL__N_130unit_test_log_data_helper_implES3_EvT_S5_RSaIT0_E.exitthread-pre-split, %1
  %.val = phi ptr [ %.val.pr, %_ZSt8_DestroyIPN5boost9unit_test12_GLOBAL__N_130unit_test_log_data_helper_implES3_EvT_S5_RSaIT0_E.exitthread-pre-split ], [ %2, %1 ]
  %.not.i.i = icmp eq ptr %.val, null
  br i1 %.not.i.i, label %_ZNSt12_Vector_baseIN5boost9unit_test12_GLOBAL__N_130unit_test_log_data_helper_implESaIS3_EED2Ev.exit, label %46

46:                                               ; preds = %_ZSt8_DestroyIPN5boost9unit_test12_GLOBAL__N_130unit_test_log_data_helper_implES3_EvT_S5_RSaIT0_E.exit
  %47 = getelementptr inbounds i8, ptr %0, i64 16
  %.val1 = load ptr, ptr %47, align 8, !tbaa !117
  %48 = ptrtoint ptr %.val1 to i64
  %49 = ptrtoint ptr %.val to i64
  %50 = sub i64 %48, %49
  tail call void @_ZdlPvm(ptr noundef nonnull %.val, i64 noundef %50) #31
  br label %_ZNSt12_Vector_baseIN5boost9unit_test12_GLOBAL__N_130unit_test_log_data_helper_implESaIS3_EED2Ev.exit

_ZNSt12_Vector_baseIN5boost9unit_test12_GLOBAL__N_130unit_test_log_data_helper_implESaIS3_EED2Ev.exit: ; preds = %_ZSt8_DestroyIPN5boost9unit_test12_GLOBAL__N_130unit_test_log_data_helper_implES3_EvT_S5_RSaIT0_E.exit, %46
  ret void
}